; ModuleID = '19/1313.c'
source_filename = "19/1313.c"
target datalayout = "e-m:e-p270:32:32-p271:32:32-p272:64:64-i64:64-f80:128-n8:16:32:64-S128"
target triple = "x86_64-pc-linux-gnu"

; Function Attrs: noinline nounwind uwtable
define dso_local void @main() #0 {
  %1 = alloca [100 x i8], align 16
  %2 = alloca [100 x i8], align 16
  %3 = alloca [100 x i8], align 16
  %4 = alloca [100 x i8], align 16
  %5 = alloca i32, align 4
  %6 = alloca i32, align 4
  %7 = alloca i32, align 4
  %8 = alloca i32, align 4
  %9 = alloca i32, align 4
  %10 = alloca i32, align 4
  %11 = alloca i32, align 4
  %12 = alloca i32, align 4
  store i32 1, i32* %12, align 4
  %13 = getelementptr inbounds [100 x i8], [100 x i8]* %1, i64 0, i64 0
  %14 = call i32 (i8*, ...) bitcast (i32 (...)* @gets to i32 (i8*, ...)*)(i8* %13)
  %15 = getelementptr inbounds [100 x i8], [100 x i8]* %2, i64 0, i64 0
  %16 = call i32 (i8*, ...) bitcast (i32 (...)* @gets to i32 (i8*, ...)*)(i8* %15)
  %17 = getelementptr inbounds [100 x i8], [100 x i8]* %3, i64 0, i64 0
  %18 = call i32 (i8*, ...) bitcast (i32 (...)* @gets to i32 (i8*, ...)*)(i8* %17)
  %19 = getelementptr inbounds [100 x i8], [100 x i8]* %1, i64 0, i64 0
  %20 = call i64 @strlen(i8* %19) #4
  %21 = trunc i64 %20 to i32
  store i32 %21, i32* %5, align 4
  %22 = getelementptr inbounds [100 x i8], [100 x i8]* %2, i64 0, i64 0
  %23 = call i64 @strlen(i8* %22) #4
  %24 = trunc i64 %23 to i32
  store i32 %24, i32* %6, align 4
  %25 = getelementptr inbounds [100 x i8], [100 x i8]* %3, i64 0, i64 0
  %26 = call i64 @strlen(i8* %25) #4
  %27 = trunc i64 %26 to i32
  store i32 %27, i32* %7, align 4
  %28 = getelementptr inbounds [100 x i8], [100 x i8]* %4, i64 0, i64 0
  %29 = getelementptr inbounds [100 x i8], [100 x i8]* %1, i64 0, i64 0
  %30 = call i8* @strcpy(i8* %28, i8* %29) #5
  store i32 0, i32* %8, align 4
  br label %31

31:                                               ; preds = %139, %0
  %32 = load i32, i32* %8, align 4
  %33 = load i32, i32* %5, align 4
  %34 = icmp slt i32 %32, %33
  br i1 %34, label %35, label %142

35:                                               ; preds = %31
  store i32 0, i32* %10, align 4
  br label %36

36:                                               ; preds = %56, %35
  %37 = load i32, i32* %10, align 4
  %38 = load i32, i32* %6, align 4
  %39 = icmp slt i32 %37, %38
  br i1 %39, label %40, label %59

40:                                               ; preds = %36
  %41 = load i32, i32* %8, align 4
  %42 = load i32, i32* %10, align 4
  %43 = add nsw i32 %41, %42
  %44 = sext i32 %43 to i64
  %45 = getelementptr inbounds [100 x i8], [100 x i8]* %4, i64 0, i64 %44
  %46 = load i8, i8* %45, align 1
  %47 = sext i8 %46 to i32
  %48 = load i32, i32* %10, align 4
  %49 = sext i32 %48 to i64
  %50 = getelementptr inbounds [100 x i8], [100 x i8]* %2, i64 0, i64 %49
  %51 = load i8, i8* %50, align 1
  %52 = sext i8 %51 to i32
  %53 = icmp ne i32 %47, %52
  br i1 %53, label %54, label %55

54:                                               ; preds = %40
  br label %59

55:                                               ; preds = %40
  br label %56

56:                                               ; preds = %55
  %57 = load i32, i32* %10, align 4
  %58 = add nsw i32 %57, 1
  store i32 %58, i32* %10, align 4
  br label %36

59:                                               ; preds = %54, %36
  %60 = load i32, i32* %10, align 4
  %61 = load i32, i32* %6, align 4
  %62 = icmp eq i32 %60, %61
  br i1 %62, label %63, label %138

63:                                               ; preds = %59
  %64 = load i32, i32* %8, align 4
  %65 = sub nsw i32 %64, 1
  %66 = sext i32 %65 to i64
  %67 = getelementptr inbounds [100 x i8], [100 x i8]* %4, i64 0, i64 %66
  %68 = load i8, i8* %67, align 1
  %69 = sext i8 %68 to i32
  %70 = icmp eq i32 %69, 32
  br i1 %70, label %74, label %71

71:                                               ; preds = %63
  %72 = load i32, i32* %8, align 4
  %73 = icmp eq i32 %72, 0
  br i1 %73, label %74, label %138

74:                                               ; preds = %71, %63
  %75 = load i32, i32* %8, align 4
  store i32 %75, i32* %11, align 4
  br label %76

76:                                               ; preds = %92, %74
  %77 = load i32, i32* %11, align 4
  %78 = load i32, i32* %8, align 4
  %79 = load i32, i32* %7, align 4
  %80 = add nsw i32 %78, %79
  %81 = icmp slt i32 %77, %80
  br i1 %81, label %82, label %95

82:                                               ; preds = %76
  %83 = load i32, i32* %11, align 4
  %84 = load i32, i32* %8, align 4
  %85 = sub nsw i32 %83, %84
  %86 = sext i32 %85 to i64
  %87 = getelementptr inbounds [100 x i8], [100 x i8]* %3, i64 0, i64 %86
  %88 = load i8, i8* %87, align 1
  %89 = load i32, i32* %11, align 4
  %90 = sext i32 %89 to i64
  %91 = getelementptr inbounds [100 x i8], [100 x i8]* %4, i64 0, i64 %90
  store i8 %88, i8* %91, align 1
  br label %92

92:                                               ; preds = %82
  %93 = load i32, i32* %11, align 4
  %94 = add nsw i32 %93, 1
  store i32 %94, i32* %11, align 4
  br label %76

95:                                               ; preds = %76
  %96 = load i32, i32* %8, align 4
  %97 = load i32, i32* %7, align 4
  %98 = add nsw i32 %96, %97
  store i32 %98, i32* %11, align 4
  br label %99

99:                                               ; preds = %123, %95
  %100 = load i32, i32* %11, align 4
  %101 = load i32, i32* %6, align 4
  %102 = load i32, i32* %7, align 4
  %103 = sub nsw i32 %101, %102
  %104 = load i32, i32* %12, align 4
  %105 = mul nsw i32 %103, %104
  %106 = add nsw i32 %100, %105
  %107 = load i32, i32* %5, align 4
  %108 = icmp slt i32 %106, %107
  br i1 %108, label %109, label %126

109:                                              ; preds = %99
  %110 = load i32, i32* %11, align 4
  %111 = load i32, i32* %6, align 4
  %112 = load i32, i32* %7, align 4
  %113 = sub nsw i32 %111, %112
  %114 = load i32, i32* %12, align 4
  %115 = mul nsw i32 %113, %114
  %116 = add nsw i32 %110, %115
  %117 = sext i32 %116 to i64
  %118 = getelementptr inbounds [100 x i8], [100 x i8]* %1, i64 0, i64 %117
  %119 = load i8, i8* %118, align 1
  %120 = load i32, i32* %11, align 4
  %121 = sext i32 %120 to i64
  %122 = getelementptr inbounds [100 x i8], [100 x i8]* %4, i64 0, i64 %121
  store i8 %119, i8* %122, align 1
  br label %123

123:                                              ; preds = %109
  %124 = load i32, i32* %11, align 4
  %125 = add nsw i32 %124, 1
  store i32 %125, i32* %11, align 4
  br label %99

126:                                              ; preds = %99
  %127 = load i32, i32* %5, align 4
  %128 = load i32, i32* %7, align 4
  %129 = load i32, i32* %6, align 4
  %130 = sub nsw i32 %128, %129
  %131 = load i32, i32* %12, align 4
  %132 = mul nsw i32 %130, %131
  %133 = add nsw i32 %127, %132
  %134 = sext i32 %133 to i64
  %135 = getelementptr inbounds [100 x i8], [100 x i8]* %4, i64 0, i64 %134
  store i8 0, i8* %135, align 1
  %136 = load i32, i32* %12, align 4
  %137 = add nsw i32 %136, 1
  store i32 %137, i32* %12, align 4
  br label %138

138:                                              ; preds = %126, %71, %59
  br label %139

139:                                              ; preds = %138
  %140 = load i32, i32* %8, align 4
  %141 = add nsw i32 %140, 1
  store i32 %141, i32* %8, align 4
  br label %31

142:                                              ; preds = %31
  %143 = getelementptr inbounds [100 x i8], [100 x i8]* %4, i64 0, i64 0
  %144 = call i32 @puts(i8* %143)
  ret void
}

declare dso_local i32 @gets(...) #1

; Function Attrs: nounwind readonly
declare dso_local i64 @strlen(i8*) #2

; Function Attrs: nounwind
declare dso_local i8* @strcpy(i8*, i8*) #3

declare dso_local i32 @puts(i8*) #1


!llvm.module.flags = !{!0}
!llvm.ident = !{!1}

!0 = !{i32 1, !"wchar_size", i32 4}
!1 = !{!"clang version 10.0.0-4ubuntu1 "}
